; ModuleID = 'source-C-CXX/6/1176.cpp'
source_filename = "source-C-CXX/6/1176.cpp"
target datalayout = "e-m:e-p270:32:32-p271:32:32-p272:64:64-i64:64-f80:128-n8:16:32:64-S128"
target triple = "x86_64-pc-linux-gnu"

%"class.std::ios_base::Init" = type { i8 }
%"class.std::basic_istream" = type { i32 (...)**, i64, %"class.std::basic_ios" }
%"class.std::basic_ios" = type { %"class.std::ios_base", %"class.std::basic_ostream"*, i8, i8, %"class.std::basic_streambuf"*, %"class.std::ctype"*, %"class.std::num_put"*, %"class.std::num_get"* }
%"class.std::ios_base" = type { i32 (...)**, i64, i64, i32, i32, i32, %"struct.std::ios_base::_Callback_list"*, %"struct.std::ios_base::_Words", [8 x %"struct.std::ios_base::_Words"], i32, %"struct.std::ios_base::_Words"*, %"class.std::locale" }
%"struct.std::ios_base::_Callback_list" = type { %"struct.std::ios_base::_Callback_list"*, void (i32, %"class.std::ios_base"*, i32)*, i32, i32 }
%"struct.std::ios_base::_Words" = type { i8*, i64 }
%"class.std::locale" = type { %"class.std::locale::_Impl"* }
%"class.std::locale::_Impl" = type { i32, %"class.std::locale::facet"**, i64, %"class.std::locale::facet"**, i8** }
%"class.std::locale::facet" = type <{ i32 (...)**, i32, [4 x i8] }>
%"class.std::basic_ostream" = type { i32 (...)**, %"class.std::basic_ios" }
%"class.std::basic_streambuf" = type { i32 (...)**, i8*, i8*, i8*, i8*, i8*, i8*, %"class.std::locale" }
%"class.std::ctype" = type <{ %"class.std::locale::facet.base", [4 x i8], %struct.__locale_struct*, i8, [7 x i8], i32*, i32*, i16*, i8, [256 x i8], [256 x i8], i8, [6 x i8] }>
%"class.std::locale::facet.base" = type <{ i32 (...)**, i32 }>
%struct.__locale_struct = type { [13 x %struct.__locale_data*], i16*, i32*, i32*, [13 x i8*] }
%struct.__locale_data = type opaque
%"class.std::num_put" = type { %"class.std::locale::facet.base", [4 x i8] }
%"class.std::num_get" = type { %"class.std::locale::facet.base", [4 x i8] }

@_ZStL8__ioinit = internal global %"class.std::ios_base::Init" zeroinitializer, align 1
@__dso_handle = external hidden global i8
@_ZSt3cin = external global %"class.std::basic_istream", align 8
@_ZSt4cout = external global %"class.std::basic_ostream", align 8
@llvm.global_ctors = appending global [1 x { i32, void ()*, i8* }] [{ i32, void ()*, i8* } { i32 65535, void ()* @_GLOBAL__sub_I_1176.cpp, i8* null }]

declare void @_ZNSt8ios_base4InitC1Ev(%"class.std::ios_base::Init"* nonnull align 1 dereferenceable(1)) unnamed_addr #0

; Function Attrs: nounwind
declare void @_ZNSt8ios_base4InitD1Ev(%"class.std::ios_base::Init"* nonnull align 1 dereferenceable(1)) unnamed_addr #1

; Function Attrs: nofree nounwind
declare i32 @__cxa_atexit(void (i8*)*, i8*, i8*) local_unnamed_addr #2

; Function Attrs: mustprogress norecurse sspstrong uwtable
define dso_local i32 @main() local_unnamed_addr #3 {
  %1 = alloca i8, align 1
  %2 = alloca i8, align 1
  %3 = alloca [256 x i8], align 16
  %4 = alloca [256 x i8], align 16
  %5 = alloca [256 x i8], align 16
  %6 = getelementptr inbounds [256 x i8], [256 x i8]* %3, i64 0, i64 0
  call void @llvm.lifetime.start.p0i8(i64 256, i8* nonnull %6) #8
  call void @llvm.memset.p0i8.i64(i8* noundef nonnull align 16 dereferenceable(256) %6, i8 0, i64 256, i1 false)
  %7 = getelementptr inbounds [256 x i8], [256 x i8]* %4, i64 0, i64 0
  call void @llvm.lifetime.start.p0i8(i64 256, i8* nonnull %7) #8
  call void @llvm.memset.p0i8.i64(i8* noundef nonnull align 16 dereferenceable(256) %7, i8 0, i64 256, i1 false)
  %8 = getelementptr inbounds [256 x i8], [256 x i8]* %5, i64 0, i64 0
  call void @llvm.lifetime.start.p0i8(i64 256, i8* nonnull %8) #8
  call void @llvm.memset.p0i8.i64(i8* noundef nonnull align 16 dereferenceable(256) %8, i8 0, i64 256, i1 false)
  call void @_ZSt17__istream_extractRSiPcl(%"class.std::basic_istream"* nonnull align 8 dereferenceable(16) @_ZSt3cin, i8* nonnull %6, i64 256)
  call void @_ZSt17__istream_extractRSiPcl(%"class.std::basic_istream"* nonnull align 8 dereferenceable(16) @_ZSt3cin, i8* nonnull %7, i64 256)
  call void @_ZSt17__istream_extractRSiPcl(%"class.std::basic_istream"* nonnull align 8 dereferenceable(16) @_ZSt3cin, i8* nonnull %8, i64 256)
  %9 = call i64 @strlen(i8* noundef nonnull %6) #9
  %10 = trunc i64 %9 to i32
  %11 = call i64 @strlen(i8* noundef nonnull %7) #9
  %12 = trunc i64 %11 to i32
  %13 = load i8, i8* %7, align 16
  %14 = icmp sgt i32 %10, 0
  br i1 %14, label %15, label %78

15:                                               ; preds = %0
  %16 = icmp sgt i32 %12, 1
  br i1 %16, label %17, label %51

17:                                               ; preds = %15
  %18 = add nsw i32 %12, -1
  %19 = shl i64 %9, 32
  %20 = ashr exact i64 %19, 32
  %21 = and i64 %9, 4294967295
  br label %22

22:                                               ; preds = %17, %43
  %23 = phi i32 [ %18, %17 ], [ %46, %43 ]
  %24 = phi i64 [ 0, %17 ], [ %44, %43 ]
  %25 = phi i1 [ true, %17 ], [ %45, %43 ]
  %26 = getelementptr inbounds [256 x i8], [256 x i8]* %3, i64 0, i64 %24
  %27 = load i8, i8* %26, align 1, !tbaa !5
  %28 = icmp eq i8 %27, %13
  br i1 %28, label %29, label %43

29:                                               ; preds = %22
  %30 = zext i32 %23 to i64
  br label %31

31:                                               ; preds = %29, %48
  %32 = phi i64 [ %24, %29 ], [ %34, %48 ]
  %33 = phi i64 [ 1, %29 ], [ %49, %48 ]
  %34 = add nuw nsw i64 %32, 1
  %35 = getelementptr inbounds [256 x i8], [256 x i8]* %3, i64 0, i64 %34
  %36 = load i8, i8* %35, align 1, !tbaa !5
  %37 = getelementptr inbounds [256 x i8], [256 x i8]* %4, i64 0, i64 %33
  %38 = load i8, i8* %37, align 1, !tbaa !5
  %39 = icmp eq i8 %36, %38
  br i1 %39, label %48, label %40

40:                                               ; preds = %31
  %41 = trunc i64 %33 to i32
  %42 = icmp eq i32 %41, %12
  br i1 %42, label %69, label %43

43:                                               ; preds = %40, %22
  %44 = add nuw nsw i64 %24, 1
  %45 = icmp slt i64 %44, %20
  %46 = add i32 %23, 1
  %47 = icmp eq i64 %44, %21
  br i1 %47, label %78, label %22, !llvm.loop !8

48:                                               ; preds = %31
  %49 = add nuw nsw i64 %33, 1
  %50 = icmp eq i64 %34, %30
  br i1 %50, label %69, label %31, !llvm.loop !10

51:                                               ; preds = %15
  %52 = icmp eq i32 %12, 1
  br i1 %52, label %53, label %78

53:                                               ; preds = %51
  %54 = load i8, i8* %6, align 16, !tbaa !5
  %55 = icmp eq i8 %54, %13
  br i1 %55, label %88, label %56

56:                                               ; preds = %53
  %57 = shl i64 %9, 32
  %58 = ashr exact i64 %57, 32
  %59 = add i64 %9, 4294967295
  %60 = and i64 %59, 4294967295
  br label %65

61:                                               ; preds = %65
  %62 = getelementptr inbounds [256 x i8], [256 x i8]* %3, i64 0, i64 %67
  %63 = load i8, i8* %62, align 1, !tbaa !5
  %64 = icmp eq i8 %63, %13
  br i1 %64, label %70, label %65, !llvm.loop !8

65:                                               ; preds = %56, %61
  %66 = phi i64 [ 0, %56 ], [ %67, %61 ]
  %67 = add nuw nsw i64 %66, 1
  %68 = icmp eq i64 %66, %60
  br i1 %68, label %78, label %61, !llvm.loop !8

69:                                               ; preds = %40, %48
  br i1 %25, label %72, label %78

70:                                               ; preds = %61
  %71 = icmp slt i64 %67, %58
  br i1 %71, label %72, label %78

72:                                               ; preds = %69, %70
  %73 = phi i64 [ %67, %70 ], [ %24, %69 ]
  %74 = trunc i64 %73 to i32
  %75 = icmp eq i32 %74, 0
  br i1 %75, label %88, label %76

76:                                               ; preds = %72
  %77 = and i64 %73, 4294967295
  br label %81

78:                                               ; preds = %65, %43, %69, %51, %0, %70
  %79 = call i64 @strlen(i8* noundef nonnull dereferenceable(1) %6) #8
  %80 = call nonnull align 8 dereferenceable(8) %"class.std::basic_ostream"* @_ZSt16__ostream_insertIcSt11char_traitsIcEERSt13basic_ostreamIT_T0_ES6_PKS3_l(%"class.std::basic_ostream"* nonnull align 8 dereferenceable(8) @_ZSt4cout, i8* nonnull %6, i64 %79)
  br label %105

81:                                               ; preds = %76, %81
  %82 = phi i64 [ 0, %76 ], [ %86, %81 ]
  %83 = getelementptr inbounds [256 x i8], [256 x i8]* %3, i64 0, i64 %82
  %84 = load i8, i8* %83, align 1, !tbaa !5
  call void @llvm.lifetime.start.p0i8(i64 1, i8* nonnull %2)
  store i8 %84, i8* %2, align 1, !tbaa !5
  %85 = call nonnull align 8 dereferenceable(8) %"class.std::basic_ostream"* @_ZSt16__ostream_insertIcSt11char_traitsIcEERSt13basic_ostreamIT_T0_ES6_PKS3_l(%"class.std::basic_ostream"* nonnull align 8 dereferenceable(8) @_ZSt4cout, i8* nonnull %2, i64 1)
  call void @llvm.lifetime.end.p0i8(i64 1, i8* nonnull %2)
  %86 = add nuw nsw i64 %82, 1
  %87 = icmp eq i64 %86, %77
  br i1 %87, label %88, label %81, !llvm.loop !11

88:                                               ; preds = %81, %53, %72
  %89 = phi i32 [ 0, %72 ], [ 0, %53 ], [ %74, %81 ]
  %90 = call i64 @strlen(i8* noundef nonnull dereferenceable(1) %8) #8
  %91 = call nonnull align 8 dereferenceable(8) %"class.std::basic_ostream"* @_ZSt16__ostream_insertIcSt11char_traitsIcEERSt13basic_ostreamIT_T0_ES6_PKS3_l(%"class.std::basic_ostream"* nonnull align 8 dereferenceable(8) @_ZSt4cout, i8* nonnull %8, i64 %90)
  %92 = add i32 %89, %12
  %93 = icmp slt i32 %92, %10
  br i1 %93, label %94, label %105

94:                                               ; preds = %88
  %95 = sext i32 %92 to i64
  %96 = shl i64 %9, 32
  %97 = ashr exact i64 %96, 32
  br label %98

98:                                               ; preds = %94, %98
  %99 = phi i64 [ %95, %94 ], [ %103, %98 ]
  %100 = getelementptr inbounds [256 x i8], [256 x i8]* %3, i64 0, i64 %99
  %101 = load i8, i8* %100, align 1, !tbaa !5
  call void @llvm.lifetime.start.p0i8(i64 1, i8* nonnull %1)
  store i8 %101, i8* %1, align 1, !tbaa !5
  %102 = call nonnull align 8 dereferenceable(8) %"class.std::basic_ostream"* @_ZSt16__ostream_insertIcSt11char_traitsIcEERSt13basic_ostreamIT_T0_ES6_PKS3_l(%"class.std::basic_ostream"* nonnull align 8 dereferenceable(8) @_ZSt4cout, i8* nonnull %1, i64 1)
  call void @llvm.lifetime.end.p0i8(i64 1, i8* nonnull %1)
  %103 = add nsw i64 %99, 1
  %104 = icmp slt i64 %103, %97
  br i1 %104, label %98, label %105, !llvm.loop !12

105:                                              ; preds = %98, %88, %78
  call void @llvm.lifetime.end.p0i8(i64 256, i8* nonnull %8) #8
  call void @llvm.lifetime.end.p0i8(i64 256, i8* nonnull %7) #8
  call void @llvm.lifetime.end.p0i8(i64 256, i8* nonnull %6) #8
  ret i32 0
}

; Function Attrs: argmemonly mustprogress nofree nosync nounwind willreturn
declare void @llvm.lifetime.start.p0i8(i64 immarg, i8* nocapture) #4

; Function Attrs: argmemonly mustprogress nofree nounwind willreturn writeonly
declare void @llvm.memset.p0i8.i64(i8* nocapture writeonly, i8, i64, i1 immarg) #5

; Function Attrs: argmemonly mustprogress nofree nounwind readonly willreturn
declare i64 @strlen(i8* nocapture) local_unnamed_addr #6

; Function Attrs: argmemonly mustprogress nofree nosync nounwind willreturn
declare void @llvm.lifetime.end.p0i8(i64 immarg, i8* nocapture) #4

declare void @_ZSt17__istream_extractRSiPcl(%"class.std::basic_istream"* nonnull align 8 dereferenceable(16), i8*, i64) local_unnamed_addr #0

declare nonnull align 8 dereferenceable(8) %"class.std::basic_ostream"* @_ZSt16__ostream_insertIcSt11char_traitsIcEERSt13basic_ostreamIT_T0_ES6_PKS3_l(%"class.std::basic_ostream"* nonnull align 8 dereferenceable(8), i8*, i64) local_unnamed_addr #0

; Function Attrs: sspstrong uwtable
define internal void @_GLOBAL__sub_I_1176.cpp() #7 section ".text.startup" {
  tail call void @_ZNSt8ios_base4InitC1Ev(%"class.std::ios_base::Init"* nonnull align 1 dereferenceable(1) @_ZStL8__ioinit)
  %1 = tail call i32 @__cxa_atexit(void (i8*)* bitcast (void (%"class.std::ios_base::Init"*)* @_ZNSt8ios_base4InitD1Ev to void (i8*)*), i8* getelementptr inbounds (%"class.std::ios_base::Init", %"class.std::ios_base::Init"* @_ZStL8__ioinit, i64 0, i32 0), i8* nonnull @__dso_handle) #8
  ret void
}


!llvm.module.flags = !{!0, !1, !2, !3}
!llvm.ident = !{!4}

!0 = !{i32 1, !"wchar_size", i32 4}
!1 = !{i32 7, !"PIC Level", i32 2}
!2 = !{i32 7, !"PIE Level", i32 2}
!3 = !{i32 7, !"uwtable", i32 1}
!4 = !{!"clang version 13.0.0"}
!5 = !{!6, !6, i64 0}
!6 = !{!"omnipotent char", !7, i64 0}
!7 = !{!"Simple C++ TBAA"}
!8 = distinct !{!8, !9}
!9 = !{!"llvm.loop.mustprogress"}
!10 = distinct !{!10, !9}
!11 = distinct !{!11, !9}
!12 = distinct !{!12, !9}
